target datalayout = "e-m:e-p270:32:32-p271:32:32-p272:64:64-i64:64-i128:128-f80:128-n8:16:32:64-S128"
target triple = "x86_64-pc-linux-gnu"

%struct.XDR = type { i32, ptr, ptr, ptr, ptr, i32 }

; Function Attrs: mustprogress nounwind uwtable
define internal noundef i32 @_ZL13xdr_swapbytesj(i32 noundef %0) #1 {
  %2 = alloca i32, align 4
  %3 = alloca i32, align 4
  %4 = alloca i32, align 4
  %5 = alloca ptr, align 8
  %6 = alloca ptr, align 8
  store i32 %0, ptr %2, align 4
  store ptr %2, ptr %5, align 8
  store ptr %3, ptr %6, align 8
  store i32 0, ptr %4, align 4
  br label %7

7:                                                ; preds = %21, %1
  %8 = load i32, ptr %4, align 4
  %9 = icmp slt i32 %8, 4
  br i1 %9, label %10, label %24

10:                                               ; preds = %7
  %11 = load ptr, ptr %5, align 8
  %12 = load i32, ptr %4, align 4
  %13 = sub nsw i32 3, %12
  %14 = sext i32 %13 to i64
  %15 = getelementptr inbounds i8, ptr %11, i64 %14
  %16 = load i8, ptr %15, align 1
  %17 = load ptr, ptr %6, align 8
  %18 = load i32, ptr %4, align 4
  %19 = sext i32 %18 to i64
  %20 = getelementptr inbounds i8, ptr %17, i64 %19
  store i8 %16, ptr %20, align 1
  br label %21

21:                                               ; preds = %10
  %22 = load i32, ptr %4, align 4
  %23 = add nsw i32 %22, 1
  store i32 %23, ptr %4, align 4
  br label %7, !llvm.loop !7

24:                                               ; preds = %7
  %25 = load i32, ptr %3, align 4
  ret i32 %25
}

; Function Attrs: mustprogress uwtable
define internal noundef i32 @_ZL9xdr_ntohlj(i32 noundef %0) #0 {
  %2 = alloca i32, align 4
  %3 = alloca i32, align 4
  %4 = alloca i16, align 2
  store i32 %0, ptr %3, align 4
  store i16 3840, ptr %4, align 2
  %5 = load i8, ptr %4, align 2
  %6 = sext i8 %5 to i32
  %7 = icmp eq i32 %6, 15
  br i1 %7, label %8, label %10

8:                                                ; preds = %1
  %9 = load i32, ptr %3, align 4
  store i32 %9, ptr %2, align 4
  br label %13

10:                                               ; preds = %1
  %11 = load i32, ptr %3, align 4
  %12 = call noundef i32 @_ZL13xdr_swapbytesj(i32 noundef %11)
  store i32 %12, ptr %2, align 4
  br label %13

13:                                               ; preds = %10, %8
  %14 = load i32, ptr %2, align 4
  ret i32 %14
}

; Function Attrs: mustprogress uwtable
define internal noundef i32 @_ZL18xdrstdio_getuint32P3XDRPj(ptr noundef %0, ptr noundef %1) #0 {
  %3 = alloca i32, align 4
  %4 = alloca ptr, align 8
  %5 = alloca ptr, align 8
  %6 = alloca i32, align 4
  store ptr %0, ptr %4, align 8
  store ptr %1, ptr %5, align 8
  %7 = load ptr, ptr %4, align 8
  %8 = getelementptr inbounds %struct.XDR, ptr %7, i32 0, i32 3
  %9 = load ptr, ptr %8, align 8
  %10 = call i64 @fread(ptr noundef %6, i64 noundef 4, i64 noundef 1, ptr noundef %9)
  %11 = icmp ne i64 %10, 1
  br i1 %11, label %12, label %13

12:                                               ; preds = %2
  store i32 0, ptr %3, align 4
  br label %17

13:                                               ; preds = %2
  %14 = load i32, ptr %6, align 4
  %15 = call noundef i32 @_ZL9xdr_ntohlj(i32 noundef %14)
  %16 = load ptr, ptr %5, align 8
  store i32 %15, ptr %16, align 4
  store i32 1, ptr %3, align 4
  br label %17

17:                                               ; preds = %13, %12
  %18 = load i32, ptr %3, align 4
  ret i32 %18
}